; Function Attrs: mustprogress nofree norecurse nosync nounwind willreturn memory(argmem: write) uwtable
define internal void @pointer_handle_axis_relative_direction(ptr noundef writeonly captures(none) %0, ptr readnone captures(none) %1, i32 noundef %2, i32 noundef %3) #5 {
  %.not = icmp eq i32 %2, 0
  %switch = icmp ult i32 %3, 2
  %or.cond = and i1 %.not, %switch
  br i1 %or.cond, label %.sink.split, label %6

.sink.split:                                      ; preds = %4
  %5 = getelementptr inbounds nuw i8, ptr %0, i64 392
  store i32 %3, ptr %5, align 8
  br label %6

6:                                                ; preds = %.sink.split, %4
  ret void
}